; ModuleID = 'bench/box2d/original/posix_thread.ll'
source_filename = "bench/box2d/original/posix_thread.ll"
target datalayout = "e-m:e-p270:32:32-p271:32:32-p272:64:64-i64:64-i128:128-f80:128-n8:16:32:64-S128"
target triple = "x86_64-pc-linux-gnu"

@.str = private unnamed_addr constant [36 x i8] c"POSIX: Failed to create context TLS\00", align 1
@.str.1 = private unnamed_addr constant [30 x i8] c"POSIX: Failed to create mutex\00", align 1

; Function Attrs: nounwind uwtable
define hidden range(i32 0, 2) i32 @_glfwPlatformCreateTls(ptr noundef %0) local_unnamed_addr #0 {
  %2 = getelementptr inbounds nuw i8, ptr %0, i64 4
  %3 = tail call i32 @pthread_key_create(ptr noundef nonnull %2, ptr noundef null) #4
  %.not = icmp eq i32 %3, 0
  br i1 %.not, label %5, label %4

4:                                                ; preds = %1
  tail call void (i32, ptr, ...) @_glfwInputError(i32 noundef 65544, ptr noundef nonnull @.str) #4
  br label %6

5:                                                ; preds = %1
  store i32 1, ptr %0, align 4, !tbaa !3
  br label %6

6:                                                ; preds = %5, %4
  %.0 = phi i32 [ 0, %4 ], [ 1, %5 ]
  ret i32 %.0
}

; Function Attrs: nounwind
declare i32 @pthread_key_create(ptr noundef, ptr noundef) local_unnamed_addr #1

declare void @_glfwInputError(i32 noundef, ptr noundef, ...) local_unnamed_addr #2

; Function Attrs: nounwind uwtable
define hidden void @_glfwPlatformDestroyTls(ptr noundef captures(none) %0) local_unnamed_addr #0 {
  %2 = load i32, ptr %0, align 4, !tbaa !3
  %.not = icmp eq i32 %2, 0
  br i1 %.not, label %7, label %3

3:                                                ; preds = %1
  %4 = getelementptr inbounds nuw i8, ptr %0, i64 4
  %5 = load i32, ptr %4, align 4, !tbaa !9
  %6 = tail call i32 @pthread_key_delete(i32 noundef %5) #4
  br label %7

7:                                                ; preds = %3, %1
  store i64 0, ptr %0, align 4
  ret void
}

; Function Attrs: nounwind
declare i32 @pthread_key_delete(i32 noundef) local_unnamed_addr #1

; Function Attrs: mustprogress nocallback nofree nounwind willreturn memory(argmem: write)
declare void @llvm.memset.p0.i64(ptr writeonly captures(none), i8, i64, i1 immarg) #3

; Function Attrs: nounwind uwtable
define hidden ptr @_glfwPlatformGetTls(ptr noundef readonly captures(none) %0) local_unnamed_addr #0 {
  %2 = getelementptr inbounds nuw i8, ptr %0, i64 4
  %3 = load i32, ptr %2, align 4, !tbaa !9
  %4 = tail call ptr @pthread_getspecific(i32 noundef %3) #4
  ret ptr %4
}

; Function Attrs: nounwind
declare ptr @pthread_getspecific(i32 noundef) local_unnamed_addr #1

; Function Attrs: nounwind uwtable
define hidden void @_glfwPlatformSetTls(ptr noundef readonly captures(none) %0, ptr noundef %1) local_unnamed_addr #0 {
  %3 = getelementptr inbounds nuw i8, ptr %0, i64 4
  %4 = load i32, ptr %3, align 4, !tbaa !9
  %5 = tail call i32 @pthread_setspecific(i32 noundef %4, ptr noundef %1) #4
  ret void
}

; Function Attrs: nounwind
declare i32 @pthread_setspecific(i32 noundef, ptr noundef) local_unnamed_addr #1

; Function Attrs: nounwind uwtable
define hidden range(i32 0, 2) i32 @_glfwPlatformCreateMutex(ptr noundef %0) local_unnamed_addr #0 {
  %2 = getelementptr inbounds nuw i8, ptr %0, i64 8
  %3 = tail call i32 @pthread_mutex_init(ptr noundef nonnull %2, ptr noundef null) #4
  %.not = icmp eq i32 %3, 0
  br i1 %.not, label %5, label %4

4:                                                ; preds = %1
  tail call void (i32, ptr, ...) @_glfwInputError(i32 noundef 65544, ptr noundef nonnull @.str.1) #4
  br label %6

5:                                                ; preds = %1
  store i32 1, ptr %0, align 8, !tbaa !10
  br label %6

6:                                                ; preds = %5, %4
  %.0 = phi i32 [ 0, %4 ], [ 1, %5 ]
  ret i32 %.0
}

; Function Attrs: nounwind
declare i32 @pthread_mutex_init(ptr noundef, ptr noundef) local_unnamed_addr #1

; Function Attrs: nounwind uwtable
define hidden void @_glfwPlatformDestroyMutex(ptr noundef %0) local_unnamed_addr #0 {
  %2 = load i32, ptr %0, align 8, !tbaa !10
  %.not = icmp eq i32 %2, 0
  br i1 %.not, label %6, label %3

3:                                                ; preds = %1
  %4 = getelementptr inbounds nuw i8, ptr %0, i64 8
  %5 = tail call i32 @pthread_mutex_destroy(ptr noundef nonnull %4) #4
  br label %6

6:                                                ; preds = %3, %1
  tail call void @llvm.memset.p0.i64(ptr noundef nonnull align 8 dereferenceable(48) %0, i8 0, i64 48, i1 false)
  ret void
}

; Function Attrs: nounwind
declare i32 @pthread_mutex_destroy(ptr noundef) local_unnamed_addr #1

; Function Attrs: nounwind uwtable
define hidden void @_glfwPlatformLockMutex(ptr noundef %0) local_unnamed_addr #0 {
  %2 = getelementptr inbounds nuw i8, ptr %0, i64 8
  %3 = tail call i32 @pthread_mutex_lock(ptr noundef nonnull %2) #4
  ret void
}

; Function Attrs: nounwind
declare i32 @pthread_mutex_lock(ptr noundef) local_unnamed_addr #1

; Function Attrs: nounwind uwtable
define hidden void @_glfwPlatformUnlockMutex(ptr noundef %0) local_unnamed_addr #0 {
  %2 = getelementptr inbounds nuw i8, ptr %0, i64 8
  %3 = tail call i32 @pthread_mutex_unlock(ptr noundef nonnull %2) #4
  ret void
}

; Function Attrs: nounwind
declare i32 @pthread_mutex_unlock(ptr noundef) local_unnamed_addr #1


!llvm.module.flags = !{!0, !1, !2}

!0 = !{i32 1, !"wchar_size", i32 4}
!1 = !{i32 8, !"PIC Level", i32 2}
!2 = !{i32 7, !"uwtable", i32 2}
!3 = !{!4, !6, i64 0}
!4 = !{!"_GLFWtls", !5, i64 0}
!5 = !{!"_GLFWtlsPOSIX", !6, i64 0, !6, i64 4}
!6 = !{!"int", !7, i64 0}
!7 = !{!"omnipotent char", !8, i64 0}
!8 = !{!"Simple C/C++ TBAA"}
!9 = !{!4, !6, i64 4}
!10 = !{!11, !6, i64 0}
!11 = !{!"_GLFWmutex", !12, i64 0}
!12 = !{!"_GLFWmutexPOSIX", !6, i64 0, !7, i64 8}
